; ModuleID = '10/1409.c'
source_filename = "10/1409.c"
target datalayout = "e-m:e-p270:32:32-p271:32:32-p272:64:64-i64:64-f80:128-n8:16:32:64-S128"
target triple = "x86_64-pc-linux-gnu"

@h = common dso_local global [26 x i32] zeroinitializer, align 16
@.str = private unnamed_addr constant [3 x i8] c"%d\00", align 1
@n = common dso_local global i32 0, align 4

; Function Attrs: noinline nounwind uwtable
define dso_local i32 @go(i32 %0, i32 %1) #0 {
  %3 = alloca i32, align 4
  %4 = alloca i32, align 4
  %5 = alloca i32, align 4
  %6 = alloca i32, align 4
  %7 = alloca i32, align 4
  %8 = alloca i32, align 4
  store i32 %0, i32* %4, align 4
  store i32 %1, i32* %5, align 4
  br label %9

9:                                                ; preds = %16, %2
  %10 = load i32, i32* %5, align 4
  %11 = sext i32 %10 to i64
  %12 = getelementptr inbounds [26 x i32], [26 x i32]* @h, i64 0, i64 %11
  %13 = load i32, i32* %12, align 4
  %14 = load i32, i32* %4, align 4
  %15 = icmp ugt i32 %13, %14
  br i1 %15, label %16, label %19

16:                                               ; preds = %9
  %17 = load i32, i32* %5, align 4
  %18 = add nsw i32 %17, 1
  store i32 %18, i32* %5, align 4
  br label %9

19:                                               ; preds = %9
  %20 = load i32, i32* %5, align 4
  %21 = sext i32 %20 to i64
  %22 = getelementptr inbounds [26 x i32], [26 x i32]* @h, i64 0, i64 %21
  %23 = load i32, i32* %22, align 4
  %24 = icmp eq i32 %23, 0
  br i1 %24, label %25, label %26

25:                                               ; preds = %19
  store i32 0, i32* %3, align 4
  br label %50

26:                                               ; preds = %19
  %27 = load i32, i32* %4, align 4
  %28 = load i32, i32* %5, align 4
  %29 = add nsw i32 %28, 1
  %30 = call i32 @go(i32 %27, i32 %29)
  store i32 %30, i32* %6, align 4
  %31 = load i32, i32* %5, align 4
  %32 = sext i32 %31 to i64
  %33 = getelementptr inbounds [26 x i32], [26 x i32]* @h, i64 0, i64 %32
  %34 = load i32, i32* %33, align 4
  store i32 %34, i32* %4, align 4
  %35 = load i32, i32* %4, align 4
  %36 = load i32, i32* %5, align 4
  %37 = add nsw i32 %36, 1
  %38 = call i32 @go(i32 %35, i32 %37)
  %39 = add nsw i32 1, %38
  store i32 %39, i32* %7, align 4
  %40 = load i32, i32* %6, align 4
  %41 = load i32, i32* %7, align 4
  %42 = icmp sgt i32 %40, %41
  br i1 %42, label %43, label %45

43:                                               ; preds = %26
  %44 = load i32, i32* %6, align 4
  br label %47

45:                                               ; preds = %26
  %46 = load i32, i32* %7, align 4
  br label %47

47:                                               ; preds = %45, %43
  %48 = phi i32 [ %44, %43 ], [ %46, %45 ]
  store i32 %48, i32* %8, align 4
  %49 = load i32, i32* %8, align 4
  store i32 %49, i32* %3, align 4
  br label %50

50:                                               ; preds = %47, %25
  %51 = load i32, i32* %3, align 4
  ret i32 %51
}

; Function Attrs: noinline nounwind uwtable
define dso_local i32 @main() #0 {
  %1 = alloca i32, align 4
  %2 = alloca i32, align 4
  %3 = alloca i32, align 4
  %4 = alloca i32, align 4
  store i32 0, i32* %1, align 4
  %5 = call i32 (i8*, ...) @__isoc99_scanf(i8* getelementptr inbounds ([3 x i8], [3 x i8]* @.str, i64 0, i64 0), i32* @n)
  store i32 0, i32* %2, align 4
  br label %6

6:                                                ; preds = %15, %0
  %7 = load i32, i32* %2, align 4
  %8 = load i32, i32* @n, align 4
  %9 = icmp ult i32 %7, %8
  br i1 %9, label %10, label %18

10:                                               ; preds = %6
  %11 = load i32, i32* %2, align 4
  %12 = zext i32 %11 to i64
  %13 = getelementptr inbounds [26 x i32], [26 x i32]* @h, i64 0, i64 %12
  %14 = call i32 (i8*, ...) @__isoc99_scanf(i8* getelementptr inbounds ([3 x i8], [3 x i8]* @.str, i64 0, i64 0), i32* %13)
  br label %15

15:                                               ; preds = %10
  %16 = load i32, i32* %2, align 4
  %17 = add i32 %16, 1
  store i32 %17, i32* %2, align 4
  br label %6

18:                                               ; preds = %6
  %19 = load i32, i32* @n, align 4
  %20 = zext i32 %19 to i64
  %21 = getelementptr inbounds [26 x i32], [26 x i32]* @h, i64 0, i64 %20
  store i32 0, i32* %21, align 4
  %22 = call i32 @go(i32 65535, i32 0)
  store i32 %22, i32* %4, align 4
  %23 = load i32, i32* %4, align 4
  %24 = call i32 (i8*, ...) @printf(i8* getelementptr inbounds ([3 x i8], [3 x i8]* @.str, i64 0, i64 0), i32 %23)
  ret i32 0
}

declare dso_local i32 @__isoc99_scanf(i8*, ...) #1

declare dso_local i32 @printf(i8*, ...) #1


!llvm.module.flags = !{!0}
!llvm.ident = !{!1}

!0 = !{i32 1, !"wchar_size", i32 4}
!1 = !{!"clang version 10.0.0-4ubuntu1 "}
